(dp0
S'name'
p1
Vramp400_no_pin
p2
sS'colsize'
p3
(dp4
S's1xerr Na'
p5
I50
sS's2xerr Na'
p6
I50
sS'syerr K'
p7
I50
sS'Nerr K'
p8
I50
sS'dynamic'
p9
I50
sS'm5yerr Na'
p10
I50
sS'Filename'
p11
I50
sS'm5xerr Na'
p12
I50
sS'N K'
p13
I50
sS'Nbec K'
p14
I50
sS'myerr Na'
p15
I50
sS'm1yerr K'
p16
I50
sS's1y K'
p17
I50
sS'N0 Na'
p18
I50
sS'rxerr K'
p19
I50
sS'params Na'
p20
I50
sS'N2 K'
p21
I50
sS'm2y K'
p22
I50
sS'Nerr Na'
p23
I50
sS'my K'
p24
I50
sS'Remark'
p25
I200
sS'sx K'
p26
I50
sS'Omit'
p27
I30
sS'N3 K'
p28
I50
sS's1y Na'
p29
I50
sS'N Na'
p30
I50
sS'Mark2'
p31
I50
sS'Mark3'
p32
I50
sS'm3x Na'
p33
I50
sS'm2yerr Na'
p34
I50
sS'FileID'
p35
I50
sS'ryerr K'
p36
I50
sS'params K'
p37
I50
sS'Terr K'
p38
I50
sS'T1err K'
p39
I50
sS'T1 Na'
p40
I50
sS'resid Na'
p41
I50
sS'ry Na'
p42
I50
sS'm5y K'
p43
I50
sS'm3y Na'
p44
I50
sS'Mark'
p45
I50
sS's2yerr K'
p46
I50
sS'm1x K'
p47
I50
sS'OD K'
p48
I50
sS'm3yerr K'
p49
I50
sS'syerr Na'
p50
I50
sS'Nth Na'
p51
I50
sS'my Na'
p52
I50
sS'sigma K'
p53
I50
sS's1x K'
p54
I50
sS'm5yerr K'
p55
I50
sS'dynamic 2'
p56
I50
sS'dynamic 3'
p57
I50
sS'dynamic 4'
p58
I50
sS'resid K'
p59
I50
sS's1yerr K'
p60
I50
sS'N3 Na'
p61
I50
sS'sxerr K'
p62
I50
sS'sy K'
p63
I50
sS'rxerr Na'
p64
I50
sS'm4yerr K'
p65
I50
sS'N5 Na'
p66
I50
sS'T K'
p67
I50
sS's2x Na'
p68
I50
sS's1yerr Na'
p69
I50
sS's2x K'
p70
I50
sS'sx Na'
p71
I50
sS's2yerr Na'
p72
I50
sS'm2y Na'
p73
I50
sS'user'
p74
I50
sS'm1x Na'
p75
I50
sS'sxerr Na'
p76
I50
sS'T1 K'
p77
I50
sS'm1y Na'
p78
I50
sS's2xerr K'
p79
I50
sS'm3yerr Na'
p80
I50
sS'rx K'
p81
I50
sS'N1 Na'
p82
I50
sS'm2x Na'
p83
I50
sS'm4x K'
p84
I50
sS'T1err Na'
p85
I50
sS'ry K'
p86
I50
sS'm5x Na'
p87
I50
sS'm4y Na'
p88
I50
sS'm4y K'
p89
I50
sS's2y K'
p90
I50
sS'myerr K'
p91
I50
sS'N1 K'
p92
I50
sS'm1y K'
p93
I50
sS'mxerr Na'
p94
I50
sS'm1xerr K'
p95
I50
sS'm4yerr Na'
p96
I50
sS'm3y K'
p97
I50
sS'm5xerr K'
p98
I50
sS'T Na'
p99
I50
sS'm5x K'
p100
I50
sS'ODerr K'
p101
I50
sS'N5 K'
p102
I50
sS'm3x K'
p103
I50
sS'm4xerr K'
p104
I50
sS'user4'
p105
I50
sS'user5'
p106
I50
sS'user2'
p107
I50
sS'user3'
p108
I50
sS'sy Na'
p109
I50
sS'mxerr K'
p110
I50
sS'sigma Na'
p111
I50
sS'N2 Na'
p112
I50
sS'm2yerr K'
p113
I50
sS'mx Na'
p114
I50
sS'm2x K'
p115
I50
sS'm4x Na'
p116
I50
sS'm2xerr K'
p117
I50
sS'm5y Na'
p118
I50
sS'Terr Na'
p119
I50
sS'N4 Na'
p120
I50
sS'N0 K'
p121
I50
sS'm2xerr Na'
p122
I50
sS'm4xerr Na'
p123
I50
sS'ryerr Na'
p124
I50
sS'm3xerr Na'
p125
I50
sS'mx K'
p126
I50
sS'N4 K'
p127
I50
sS's2y Na'
p128
I50
sS'Nbec Na'
p129
I50
sS'm1yerr Na'
p130
I50
sS'Nth K'
p131
I50
sS's1x Na'
p132
I50
sS's1xerr K'
p133
I50
sS'm1xerr Na'
p134
I50
sS'm3xerr K'
p135
I50
sS'rx Na'
p136
I50
sS'OD Na'
p137
I50
ssS'dynamic_expressions'
p138
(lp139
S'(N0_K-N1_K)/N0_K'
p140
aS''
p141
ag141
ag141
asS'colsel'
p142
(lp143
g35
ag30
ag137
ag71
ag109
ag136
ag42
ag114
ag52
ag99
ag13
ag48
ag26
ag63
ag81
ag86
ag67
ag9
ag56
ag74
ag107
ag108
ag105
ag106
ag27
ag25
asS'column_labels_custom'
p144
(dp145
g105
S't switch off'
p146
sg106
S'wait after off'
p147
sg107
S'tof'
p148
sg108
S'P green'
p149
sg9
S'depth'
p150
sg74
VNvortices
p151
ssS'marks'
p152
(dp153
S'Y1'
p154
(lp155
sS'X'
p156
(lp157
sS'Y2'
p158
(lp159
sS'G'
p160
(lp161
ss.