(dp0
S'name'
p1
S'results'
p2
sS'colsize'
p3
(dp4
S's1xerr Na'
p5
I50
sS's2xerr Na'
p6
I50
sS'syerr K'
p7
I50
sS'Nerr K'
p8
I50
sS'dynamic'
p9
I50
sS'm5yerr Na'
p10
I50
sS'Filename'
p11
I50
sS'm5xerr Na'
p12
I50
sS'N K'
p13
I50
sS'Nbec K'
p14
I50
sS'myerr Na'
p15
I50
sS'm1yerr K'
p16
I50
sS's1y K'
p17
I50
sS'N0 Na'
p18
I50
sS'm1x Na'
p19
I50
sS'params Na'
p20
I50
sS'N2 K'
p21
I50
sS'm2y K'
p22
I50
sS'Nerr Na'
p23
I50
sS'my K'
p24
I50
sS'Remark'
p25
I200
sS'sx K'
p26
I50
sS'Omit'
p27
I30
sS'N3 K'
p28
I50
sS's1y Na'
p29
I50
sS'N Na'
p30
I50
sS'Mark2'
p31
I50
sS'Mark3'
p32
I50
sS'm3x Na'
p33
I50
sS'm2yerr Na'
p34
I50
sS'FileID'
p35
I50
sS'ryerr K'
p36
I50
sS'params K'
p37
I50
sS'Terr K'
p38
I50
sS'T1err K'
p39
I50
sS'T1 Na'
p40
I50
sS'resid Na'
p41
I50
sS'ry Na'
p42
I50
sS'm5y K'
p43
I50
sS'm3y Na'
p44
I50
sS'Mark'
p45
I50
sS's2yerr K'
p46
I50
sS'm1x K'
p47
I50
sS'OD K'
p48
I50
sS'm3yerr K'
p49
I50
sS'syerr Na'
p50
I50
sS'Nth Na'
p51
I50
sS'my Na'
p52
I50
sS'sigma K'
p53
I50
sS's1x K'
p54
I50
sS'm5yerr K'
p55
I50
sS'dynamic 2'
p56
I50
sS'dynamic 3'
p57
I50
sS'dynamic 4'
p58
I50
sS'resid K'
p59
I50
sS's1yerr K'
p60
I50
sS'N3 Na'
p61
I50
sS'sxerr K'
p62
I50
sS'sy K'
p63
I50
sS'rxerr Na'
p64
I50
sS'm4yerr K'
p65
I50
sS'N5 Na'
p66
I50
sS'T K'
p67
I50
sS's2x Na'
p68
I50
sS's1yerr Na'
p69
I50
sS's2x K'
p70
I50
sS'sx Na'
p71
I50
sS's2xerr K'
p72
I50
sS's2yerr Na'
p73
I50
sS'm2y Na'
p74
I50
sS'user'
p75
I50
sS'rxerr K'
p76
I50
sS'sxerr Na'
p77
I50
sS'T1 K'
p78
I50
sS'm1y Na'
p79
I50
sS'Timestamp'
p80
I50
sS'm3yerr Na'
p81
I50
sS'rx K'
p82
I50
sS'N1 Na'
p83
I50
sS'm2x Na'
p84
I50
sS'm4x K'
p85
I50
sS'T1err Na'
p86
I50
sS'ry K'
p87
I50
sS'm5x Na'
p88
I50
sS'm4y Na'
p89
I50
sS'm4y K'
p90
I50
sS's2y K'
p91
I50
sS'myerr K'
p92
I50
sS'N1 K'
p93
I50
sS'm1y K'
p94
I50
sS'mxerr Na'
p95
I50
sS'm1xerr K'
p96
I50
sS'm4yerr Na'
p97
I50
sS'm3y K'
p98
I50
sS'm5xerr K'
p99
I50
sS'T Na'
p100
I50
sS'm5x K'
p101
I50
sS'ODerr K'
p102
I50
sS'N5 K'
p103
I50
sS'm3x K'
p104
I50
sS'm4xerr K'
p105
I50
sS'user4'
p106
I50
sS'user5'
p107
I50
sS'user2'
p108
I50
sS'user3'
p109
I50
sS'sy Na'
p110
I50
sS'mxerr K'
p111
I50
sS'sigma Na'
p112
I50
sS'N2 Na'
p113
I50
sS'm2yerr K'
p114
I50
sS'mx Na'
p115
I50
sS'm2x K'
p116
I50
sS'm4x Na'
p117
I50
sS'm2xerr K'
p118
I50
sS'm5y Na'
p119
I50
sS'Terr Na'
p120
I50
sS'N4 Na'
p121
I50
sS'N0 K'
p122
I50
sS'm2xerr Na'
p123
I50
sS'm4xerr Na'
p124
I50
sS'ryerr Na'
p125
I50
sS'm3xerr Na'
p126
I50
sS'mx K'
p127
I50
sS'N4 K'
p128
I50
sS's2y Na'
p129
I50
sS'Nbec Na'
p130
I50
sS'm1yerr Na'
p131
I50
sS'Nth K'
p132
I50
sS's1x Na'
p133
I50
sS's1xerr K'
p134
I50
sS'm1xerr Na'
p135
I50
sS'm3xerr K'
p136
I50
sS'rx Na'
p137
I50
sS'OD Na'
p138
I50
ssS'dynamic_expressions'
p139
(lp140
V1e-6*(sx_Na**2 + sy_Na**2)/2
p141
aVN_Na *1e-3* (1 + (2*20/9.7946)**2)
p142
aS'user**2'
p143
aVN_K *1e-3* (1 + (2*20/9.7946)**2)
p144
asS'colsel'
p145
(lp146
g35
ag30
ag138
ag71
ag110
ag137
ag42
ag115
ag52
ag100
ag13
ag9
ag56
ag57
ag58
ag75
ag108
ag109
ag106
ag27
ag25
asS'column_labels_custom'
p147
(dp148
g106
Vtype
p149
sg108
Vtype
p150
sg109
S'loading'
p151
sg9
S'avg s^2'
p152
sg75
S'tof'
p153
sg56
VN_Na true (M)
p154
sg57
S'tof^2'
p155
ssS'marks'
p156
(dp157
S'Y1'
p158
(lp159
g9
asS'X'
p160
(lp161
g57
asS'Y2'
p162
(lp163
g56
asS'G'
p164
(lp165
ss.